; ModuleID = '46/629.c'
source_filename = "46/629.c"
target datalayout = "e-m:e-p270:32:32-p271:32:32-p272:64:64-i64:64-f80:128-n8:16:32:64-S128"
target triple = "x86_64-pc-linux-gnu"

@.str = private unnamed_addr constant [6 x i8] c"%d %d\00", align 1
@.str.1 = private unnamed_addr constant [3 x i8] c"%d\00", align 1
@.str.2 = private unnamed_addr constant [4 x i8] c"%d\0A\00", align 1

; Function Attrs: noinline nounwind uwtable
define dso_local i32 @main() #0 {
  %1 = alloca i32, align 4
  %2 = alloca [100 x [100 x i32]], align 16
  %3 = alloca i32, align 4
  %4 = alloca i32, align 4
  %5 = alloca i32, align 4
  %6 = alloca i32, align 4
  %7 = alloca i32, align 4
  %8 = alloca i32, align 4
  store i32 0, i32* %1, align 4
  %9 = bitcast [100 x [100 x i32]]* %2 to i8*
  call void @llvm.memset.p0i8.i64(i8* align 16 %9, i8 0, i64 40000, i1 false)
  store i32 0, i32* %5, align 4
  store i32 0, i32* %6, align 4
  store i32 0, i32* %7, align 4
  store i32 0, i32* %8, align 4
  %10 = call i32 (i8*, ...) @__isoc99_scanf(i8* getelementptr inbounds ([6 x i8], [6 x i8]* @.str, i64 0, i64 0), i32* %3, i32* %4)
  store i32 0, i32* %5, align 4
  br label %11

11:                                               ; preds = %32, %0
  %12 = load i32, i32* %5, align 4
  %13 = load i32, i32* %3, align 4
  %14 = icmp slt i32 %12, %13
  br i1 %14, label %15, label %35

15:                                               ; preds = %11
  store i32 0, i32* %6, align 4
  br label %16

16:                                               ; preds = %28, %15
  %17 = load i32, i32* %6, align 4
  %18 = load i32, i32* %4, align 4
  %19 = icmp slt i32 %17, %18
  br i1 %19, label %20, label %31

20:                                               ; preds = %16
  %21 = load i32, i32* %5, align 4
  %22 = sext i32 %21 to i64
  %23 = getelementptr inbounds [100 x [100 x i32]], [100 x [100 x i32]]* %2, i64 0, i64 %22
  %24 = load i32, i32* %6, align 4
  %25 = sext i32 %24 to i64
  %26 = getelementptr inbounds [100 x i32], [100 x i32]* %23, i64 0, i64 %25
  %27 = call i32 (i8*, ...) @__isoc99_scanf(i8* getelementptr inbounds ([3 x i8], [3 x i8]* @.str.1, i64 0, i64 0), i32* %26)
  br label %28

28:                                               ; preds = %20
  %29 = load i32, i32* %6, align 4
  %30 = add nsw i32 %29, 1
  store i32 %30, i32* %6, align 4
  br label %16

31:                                               ; preds = %16
  br label %32

32:                                               ; preds = %31
  %33 = load i32, i32* %5, align 4
  %34 = add nsw i32 %33, 1
  store i32 %34, i32* %5, align 4
  br label %11

35:                                               ; preds = %11
  store i32 0, i32* %5, align 4
  store i32 0, i32* %6, align 4
  br label %36

36:                                               ; preds = %167, %35
  %37 = load i32, i32* %7, align 4
  store i32 %37, i32* %6, align 4
  br label %38

38:                                               ; preds = %53, %36
  %39 = load i32, i32* %6, align 4
  %40 = load i32, i32* %4, align 4
  %41 = load i32, i32* %7, align 4
  %42 = sub nsw i32 %40, %41
  %43 = icmp slt i32 %39, %42
  br i1 %43, label %44, label %56

44:                                               ; preds = %38
  %45 = load i32, i32* %5, align 4
  %46 = sext i32 %45 to i64
  %47 = getelementptr inbounds [100 x [100 x i32]], [100 x [100 x i32]]* %2, i64 0, i64 %46
  %48 = load i32, i32* %6, align 4
  %49 = sext i32 %48 to i64
  %50 = getelementptr inbounds [100 x i32], [100 x i32]* %47, i64 0, i64 %49
  %51 = load i32, i32* %50, align 4
  %52 = call i32 (i8*, ...) @printf(i8* getelementptr inbounds ([4 x i8], [4 x i8]* @.str.2, i64 0, i64 0), i32 %51)
  br label %53

53:                                               ; preds = %44
  %54 = load i32, i32* %6, align 4
  %55 = add nsw i32 %54, 1
  store i32 %55, i32* %6, align 4
  br label %38

56:                                               ; preds = %38
  %57 = load i32, i32* %6, align 4
  %58 = sub nsw i32 %57, 1
  store i32 %58, i32* %6, align 4
  %59 = load i32, i32* %8, align 4
  %60 = mul nsw i32 2, %59
  %61 = add nsw i32 %60, 1
  %62 = load i32, i32* %3, align 4
  %63 = icmp eq i32 %61, %62
  br i1 %63, label %64, label %65

64:                                               ; preds = %56
  br label %169

65:                                               ; preds = %56
  %66 = load i32, i32* %8, align 4
  %67 = add nsw i32 %66, 1
  store i32 %67, i32* %5, align 4
  br label %68

68:                                               ; preds = %83, %65
  %69 = load i32, i32* %5, align 4
  %70 = load i32, i32* %3, align 4
  %71 = load i32, i32* %8, align 4
  %72 = sub nsw i32 %70, %71
  %73 = icmp slt i32 %69, %72
  br i1 %73, label %74, label %86

74:                                               ; preds = %68
  %75 = load i32, i32* %5, align 4
  %76 = sext i32 %75 to i64
  %77 = getelementptr inbounds [100 x [100 x i32]], [100 x [100 x i32]]* %2, i64 0, i64 %76
  %78 = load i32, i32* %6, align 4
  %79 = sext i32 %78 to i64
  %80 = getelementptr inbounds [100 x i32], [100 x i32]* %77, i64 0, i64 %79
  %81 = load i32, i32* %80, align 4
  %82 = call i32 (i8*, ...) @printf(i8* getelementptr inbounds ([4 x i8], [4 x i8]* @.str.2, i64 0, i64 0), i32 %81)
  br label %83

83:                                               ; preds = %74
  %84 = load i32, i32* %5, align 4
  %85 = add nsw i32 %84, 1
  store i32 %85, i32* %5, align 4
  br label %68

86:                                               ; preds = %68
  %87 = load i32, i32* %5, align 4
  %88 = sub nsw i32 %87, 1
  store i32 %88, i32* %5, align 4
  %89 = load i32, i32* %7, align 4
  %90 = add nsw i32 %89, 1
  store i32 %90, i32* %7, align 4
  %91 = load i32, i32* %4, align 4
  %92 = load i32, i32* %7, align 4
  %93 = load i32, i32* %8, align 4
  %94 = add nsw i32 %92, %93
  %95 = icmp eq i32 %91, %94
  br i1 %95, label %96, label %97

96:                                               ; preds = %86
  br label %169

97:                                               ; preds = %86
  %98 = load i32, i32* %4, align 4
  %99 = load i32, i32* %7, align 4
  %100 = sub nsw i32 %98, %99
  %101 = sub nsw i32 %100, 1
  store i32 %101, i32* %6, align 4
  br label %102

102:                                              ; preds = %115, %97
  %103 = load i32, i32* %6, align 4
  %104 = load i32, i32* %8, align 4
  %105 = icmp sge i32 %103, %104
  br i1 %105, label %106, label %118

106:                                              ; preds = %102
  %107 = load i32, i32* %5, align 4
  %108 = sext i32 %107 to i64
  %109 = getelementptr inbounds [100 x [100 x i32]], [100 x [100 x i32]]* %2, i64 0, i64 %108
  %110 = load i32, i32* %6, align 4
  %111 = sext i32 %110 to i64
  %112 = getelementptr inbounds [100 x i32], [100 x i32]* %109, i64 0, i64 %111
  %113 = load i32, i32* %112, align 4
  %114 = call i32 (i8*, ...) @printf(i8* getelementptr inbounds ([4 x i8], [4 x i8]* @.str.2, i64 0, i64 0), i32 %113)
  br label %115

115:                                              ; preds = %106
  %116 = load i32, i32* %6, align 4
  %117 = add nsw i32 %116, -1
  store i32 %117, i32* %6, align 4
  br label %102

118:                                              ; preds = %102
  %119 = load i32, i32* %6, align 4
  %120 = add nsw i32 %119, 1
  store i32 %120, i32* %6, align 4
  %121 = load i32, i32* %8, align 4
  %122 = add nsw i32 %121, 1
  store i32 %122, i32* %8, align 4
  %123 = load i32, i32* %3, align 4
  %124 = load i32, i32* %8, align 4
  %125 = load i32, i32* %7, align 4
  %126 = add nsw i32 %124, %125
  %127 = icmp eq i32 %123, %126
  br i1 %127, label %128, label %129

128:                                              ; preds = %118
  br label %169

129:                                              ; preds = %118
  %130 = load i32, i32* %3, align 4
  %131 = load i32, i32* %8, align 4
  %132 = sub nsw i32 %130, %131
  %133 = sub nsw i32 %132, 1
  store i32 %133, i32* %5, align 4
  br label %134

134:                                              ; preds = %147, %129
  %135 = load i32, i32* %5, align 4
  %136 = load i32, i32* %7, align 4
  %137 = icmp sge i32 %135, %136
  br i1 %137, label %138, label %150

138:                                              ; preds = %134
  %139 = load i32, i32* %5, align 4
  %140 = sext i32 %139 to i64
  %141 = getelementptr inbounds [100 x [100 x i32]], [100 x [100 x i32]]* %2, i64 0, i64 %140
  %142 = load i32, i32* %6, align 4
  %143 = sext i32 %142 to i64
  %144 = getelementptr inbounds [100 x i32], [100 x i32]* %141, i64 0, i64 %143
  %145 = load i32, i32* %144, align 4
  %146 = call i32 (i8*, ...) @printf(i8* getelementptr inbounds ([4 x i8], [4 x i8]* @.str.2, i64 0, i64 0), i32 %145)
  br label %147

147:                                              ; preds = %138
  %148 = load i32, i32* %5, align 4
  %149 = add nsw i32 %148, -1
  store i32 %149, i32* %5, align 4
  br label %134

150:                                              ; preds = %134
  %151 = load i32, i32* %5, align 4
  %152 = add nsw i32 %151, 1
  store i32 %152, i32* %5, align 4
  %153 = load i32, i32* %4, align 4
  %154 = load i32, i32* %7, align 4
  %155 = mul nsw i32 2, %154
  %156 = icmp eq i32 %153, %155
  br i1 %156, label %157, label %158

157:                                              ; preds = %150
  br label %169

158:                                              ; preds = %150
  br label %159

159:                                              ; preds = %158
  %160 = load i32, i32* %7, align 4
  %161 = load i32, i32* %4, align 4
  %162 = icmp ne i32 %160, %161
  br i1 %162, label %163, label %167

163:                                              ; preds = %159
  %164 = load i32, i32* %8, align 4
  %165 = load i32, i32* %3, align 4
  %166 = icmp ne i32 %164, %165
  br label %167

167:                                              ; preds = %163, %159
  %168 = phi i1 [ false, %159 ], [ %166, %163 ]
  br i1 %168, label %36, label %169

169:                                              ; preds = %167, %157, %128, %96, %64
  ret i32 0
}

; Function Attrs: argmemonly nounwind willreturn
declare void @llvm.memset.p0i8.i64(i8* nocapture writeonly, i8, i64, i1 immarg) #1

declare dso_local i32 @__isoc99_scanf(i8*, ...) #2

declare dso_local i32 @printf(i8*, ...) #2


!llvm.module.flags = !{!0}
!llvm.ident = !{!1}

!0 = !{i32 1, !"wchar_size", i32 4}
!1 = !{!"clang version 10.0.0-4ubuntu1 "}
